(dp0
S'count'
p1
(dp2
S'1'
p3
I56
sS'3'
p4
I56
sS'2'
p5
I60
sS'4'
p6
I50
ssS'training'
p7
I166
sS'classes'
p8
I4
sS'test'
p9
I56
sS'total'
p10
I222
sS'class_names'
p11
(lp12
S'Physcia'
p13
aS'Xanthoria'
p14
aS'Flavoparmelia'
p15
aS'Evernia'
p16
as.