(dp0
S'scaling'
p1
S'MaxAbsScaler'
p2
sS'svc'
p3
(dp4
S'kernel'
p5
S'rbf'
p6
sS'C'
p7
F2.8
sS'gamma'
p8
F0.0073
sS'probability'
p9
I01
ssS'transform_factor'
p10
I0
sS'selectors'
p11
(dp12
S'feature_percentile'
p13
(dp14
S'percentage'
p15
I10
sS'mode'
p16
S'f_classif'
p17
ssS'variance_threshold'
p18
F0.8
ss.