(dp0
S'training'
p1
(dp2
S'features'
p3
I254
sS'class_count'
p4
(dp5
S'Flavoparmelia'
p6
I56
sS'Xanthoria'
p7
I60
sS'Physcia'
p8
I56
sS'Evernia'
p9
I50
ssS'features_after_selection'
p10
I3
sS'train'
p11
(dp12
g6
I39
sg7
I44
sg8
I44
sg9
I39
ssS'classes'
p13
I4
sS'test'
p14
(dp15
g6
I17
sg7
I16
sg8
I12
sg9
I11
ssS'total'
p16
I222
ssS'validation'
p17
(dp18
g13
I4
sg10
I3
sg16
I96
sg3
I254
sg4
(dp19
g6
I22
sg7
I27
sg8
I25
sg9
I22
sssS'class_names'
p20
(lp21
g8
ag7
ag6
ag9
as.