(dp0
S'scaling'
p1
S'StandardScaler'
p2
sS'mlp'
p3
(dp4
S'max_iter'
p5
I1200
sS'probability'
p6
I01
sS'hidden_layer_sizes'
p7
(I20
I60
I30
tp8
ssS'transform_factor'
p9
I2
sS'selectors'
p10
(dp11
S'variance_threshold'
p12
F0.8
ss.