(dp0
S'count'
p1
(dp2
S'2.0'
p3
I87
sS'1.0'
p4
I81
sS'4.0'
p5
I72
sS'3.0'
p6
I78
ssS'training'
p7
I238
sS'classes'
p8
I4
sS'test'
p9
I80
sS'total'
p10
I318
sS'class_names'
p11
(lp12
S'Physcia'
p13
aS'Xanthoria'
p14
aS'Flavoparmelia'
p15
aS'Evernia'
p16
as.